; Function Attrs: mustprogress uwtable
define dso_local noundef zeroext i1 @_ZN5vcpkgeqERKNS_11VersionSpecES2_(ptr noundef nonnull align 8 dereferenceable(72) %0, ptr noundef nonnull align 8 dereferenceable(72) %1) local_unnamed_addr #2 personality ptr @__gxx_personality_v0 {
  %3 = alloca %"class.std::tuple", align 8
  %4 = alloca %"class.std::tuple", align 8
  %5 = getelementptr inbounds i8, ptr %0, i64 32
  store ptr %5, ptr %3, align 8, !alias.scope !19
  %6 = getelementptr inbounds i8, ptr %3, i64 8
  store ptr %0, ptr %6, align 8, !alias.scope !19
  %7 = getelementptr inbounds i8, ptr %1, i64 32
  store ptr %7, ptr %4, align 8, !alias.scope !22
  %8 = getelementptr inbounds i8, ptr %4, i64 8
  store ptr %1, ptr %8, align 8, !alias.scope !22
  %9 = call noundef zeroext i1 @_ZNSt15__tuple_compareISt5tupleIJRKNSt7__cxx1112basic_stringIcSt11char_traitsIcESaIcEEERKN5vcpkg7VersionEEESD_Lm0ELm2EE4__eqERKSD_SG_(ptr noundef nonnull align 8 dereferenceable(16) %3, ptr noundef nonnull align 8 dereferenceable(16) %4)
  ret i1 %9
}